target datalayout = "e-m:e-p270:32:32-p271:32:32-p272:64:64-i64:64-i128:128-f80:128-n8:16:32:64-S128"
target triple = "x86_64-pc-linux-gnu"

%struct._php_stream = type { ptr, ptr, %struct._php_stream_filter_chain, %struct._php_stream_filter_chain, ptr, ptr, %struct._zval_struct, i16, [16 x i8], i32, ptr, ptr, ptr, ptr, i64, ptr, i64, i64, i64, i64, ptr }
%struct._php_stream_filter_chain = type { ptr, ptr, ptr }
%struct._zval_struct = type { %union._zend_value, %union.anon, %union.anon.2 }
%union._zend_value = type { i64 }
%union.anon = type { i32 }
%union.anon.2 = type { i32 }
%struct.php_stream_memory_data = type { ptr, i64, i32 }
%struct._zend_refcounted_h = type { i32, %union.anon.3 }
%union.anon.3 = type { i32 }

@.str.3 = private unnamed_addr constant [3 x i8] c"rb\00", align 1
@.str.4 = private unnamed_addr constant [4 x i8] c"a+b\00", align 1
@.str.5 = private unnamed_addr constant [4 x i8] c"w+b\00", align 1
@zend_empty_string = external global ptr, align 8

; Function Attrs: nounwind uwtable
define ptr @_php_stream_mode_to_str(i32 noundef %0) #0 {
  %2 = alloca ptr, align 8
  %3 = alloca i32, align 4
  store i32 %0, ptr %3, align 4
  %4 = load i32, ptr %3, align 4
  %5 = icmp eq i32 %4, 1
  br i1 %5, label %6, label %7

6:                                                ; preds = %1
  store ptr @.str.3, ptr %2, align 8
  br label %13

7:                                                ; preds = %1
  %8 = load i32, ptr %3, align 4
  %9 = icmp eq i32 %8, 4
  br i1 %9, label %10, label %11

10:                                               ; preds = %7
  store ptr @.str.4, ptr %2, align 8
  br label %13

11:                                               ; preds = %7
  br label %12

12:                                               ; preds = %11
  store ptr @.str.5, ptr %2, align 8
  br label %13

13:                                               ; preds = %12, %10, %6
  %14 = load ptr, ptr %2, align 8
  ret ptr %14
}

; Function Attrs: nounwind uwtable
define ptr @_php_stream_memory_create(i32 noundef %0) #0 {
  %2 = alloca i32, align 4
  %3 = alloca ptr, align 8
  %4 = alloca ptr, align 8
  store i32 %0, ptr %2, align 4
  %5 = call noalias ptr @_emalloc_24()
  store ptr %5, ptr %3, align 8
  %6 = load ptr, ptr @zend_empty_string, align 8
  %7 = load ptr, ptr %3, align 8
  %8 = getelementptr inbounds %struct.php_stream_memory_data, ptr %7, i32 0, i32 0
  store ptr %6, ptr %8, align 8
  %9 = load ptr, ptr %3, align 8
  %10 = getelementptr inbounds %struct.php_stream_memory_data, ptr %9, i32 0, i32 1
  store i64 0, ptr %10, align 8
  %11 = load i32, ptr %2, align 4
  %12 = load ptr, ptr %3, align 8
  %13 = getelementptr inbounds %struct.php_stream_memory_data, ptr %12, i32 0, i32 2
  store i32 %11, ptr %13, align 8
  %14 = load ptr, ptr %3, align 8
  %15 = load i32, ptr %2, align 4
  %16 = call ptr @_php_stream_mode_to_str(i32 noundef %15)
  %17 = call ptr @_php_stream_alloc(ptr noundef @php_stream_memory_ops, ptr noundef %14, ptr noundef null, ptr noundef %16)
  store ptr %17, ptr %4, align 8
  %18 = load ptr, ptr %4, align 8
  %19 = getelementptr inbounds %struct._php_stream, ptr %18, i32 0, i32 9
  %20 = load i32, ptr %19, align 4
  %21 = or i32 %20, 2
  store i32 %21, ptr %19, align 4
  %22 = load ptr, ptr %4, align 8
  ret ptr %22
}

; Function Attrs: nounwind uwtable
define ptr @_php_stream_memory_open(i32 noundef %0, ptr noundef %1) #0 {
  %3 = alloca ptr, align 8
  %4 = alloca i32, align 4
  %5 = alloca ptr, align 8
  %6 = alloca i32, align 4
  %7 = alloca ptr, align 8
  %8 = alloca ptr, align 8
  %9 = alloca ptr, align 8
  store i32 %0, ptr %6, align 4
  store ptr %1, ptr %7, align 8
  %10 = load i32, ptr %6, align 4
  %11 = call ptr @_php_stream_memory_create(i32 noundef %10)
  store ptr %11, ptr %8, align 8
  %12 = icmp ne ptr %11, null
  br i1 %12, label %13, label %34

13:                                               ; preds = %2
  %14 = load ptr, ptr %8, align 8
  %15 = getelementptr inbounds %struct._php_stream, ptr %14, i32 0, i32 1
  %16 = load ptr, ptr %15, align 8
  store ptr %16, ptr %9, align 8
  %17 = load ptr, ptr %7, align 8
  store ptr %17, ptr %5, align 8
  %18 = load ptr, ptr %5, align 8
  %19 = getelementptr inbounds %struct._zend_refcounted_h, ptr %18, i32 0, i32 1
  %20 = load i32, ptr %19, align 4
  store i32 %20, ptr %4, align 4
  %21 = load i32, ptr %4, align 4
  %22 = and i32 %21, 1008
  %23 = and i32 %22, 64
  %24 = icmp ne i32 %23, 0
  br i1 %24, label %30, label %25

25:                                               ; preds = %13
  %26 = load ptr, ptr %5, align 8
  store ptr %26, ptr %3, align 8
  %27 = load ptr, ptr %3, align 8
  %28 = load i32, ptr %27, align 4
  %29 = add i32 %28, 1
  store i32 %29, ptr %27, align 4
  br label %30

30:                                               ; preds = %25, %13
  %31 = load ptr, ptr %5, align 8
  %32 = load ptr, ptr %9, align 8
  %33 = getelementptr inbounds %struct.php_stream_memory_data, ptr %32, i32 0, i32 0
  store ptr %31, ptr %33, align 8
  br label %34

34:                                               ; preds = %30, %2
  %35 = load ptr, ptr %8, align 8
  ret ptr %35
}