; Function Attrs: nounwind uwtable
define ptr @_php_stream_memory_open(i32 noundef %0, ptr noundef %1) local_unnamed_addr #0 {
  %3 = tail call noalias ptr @_emalloc_24() #20
  %4 = load ptr, ptr @zend_empty_string, align 8
  store ptr %4, ptr %3, align 8
  %5 = getelementptr inbounds i8, ptr %3, i64 8
  store i64 0, ptr %5, align 8
  %6 = getelementptr inbounds i8, ptr %3, i64 16
  store i32 %0, ptr %6, align 8
  %switch.selectcmp.i.i = icmp eq i32 %0, 4
  %switch.select.i.i = select i1 %switch.selectcmp.i.i, ptr @.str.4, ptr @.str.5
  %switch.selectcmp3.i.i = icmp eq i32 %0, 1
  %switch.select4.i.i = select i1 %switch.selectcmp3.i.i, ptr @.str.3, ptr %switch.select.i.i
  %7 = tail call ptr @_php_stream_alloc(ptr noundef nonnull @php_stream_memory_ops, ptr noundef nonnull %3, ptr noundef null, ptr noundef nonnull %switch.select4.i.i) #20
  %8 = getelementptr inbounds i8, ptr %7, i64 116
  %9 = load i32, ptr %8, align 4
  %10 = or i32 %9, 2
  store i32 %10, ptr %8, align 4
  %11 = getelementptr inbounds i8, ptr %7, i64 8
  %12 = load ptr, ptr %11, align 8
  %13 = getelementptr inbounds i8, ptr %1, i64 4
  %14 = load i32, ptr %13, align 4
  %15 = and i32 %14, 64
  %.not9 = icmp eq i32 %15, 0
  br i1 %.not9, label %16, label %19

16:                                               ; preds = %2
  %17 = load i32, ptr %1, align 4
  %18 = add i32 %17, 1
  store i32 %18, ptr %1, align 4
  br label %19

19:                                               ; preds = %2, %16
  store ptr %1, ptr %12, align 8
  ret ptr %7
}